target datalayout = "e-m:e-p270:32:32-p271:32:32-p272:64:64-i64:64-i128:128-f80:128-n8:16:32:64-S128"
target triple = "x86_64-pc-linux-gnu"

%"class.nix::AutoCloseFD" = type { i32 }

@_ZTIN3nix8SysErrorE = linkonce_odr constant { ptr, ptr, ptr } { ptr getelementptr inbounds (ptr, ptr @_ZTVN10__cxxabiv120__si_class_type_infoE, i64 2), ptr @_ZTSN3nix8SysErrorE, ptr @_ZTIN3nix11SystemErrorE }, comdat, align 8
@.str.10 = private unnamed_addr constant [26 x i8] c"fsync file descriptor %1%\00", align 1

; Function Attrs: mustprogress uwtable
define void @_ZN3nix11AutoCloseFD5fsyncEv(ptr noundef nonnull align 4 dereferenceable(4) %0) #3 align 2 personality ptr @__gxx_personality_v0 {
  %2 = alloca ptr, align 8
  %3 = alloca i32, align 4
  %4 = alloca ptr, align 8
  %5 = alloca i32, align 4
  store ptr %0, ptr %2, align 8
  %6 = load ptr, ptr %2, align 8
  %7 = getelementptr inbounds %"class.nix::AutoCloseFD", ptr %6, i32 0, i32 0
  %8 = load i32, ptr %7, align 4
  %9 = icmp ne i32 %8, -1
  br i1 %9, label %10, label %25

10:                                               ; preds = %1
  %11 = getelementptr inbounds %"class.nix::AutoCloseFD", ptr %6, i32 0, i32 0
  %12 = load i32, ptr %11, align 4
  %13 = call i32 @fsync(i32 noundef %12)
  store i32 %13, ptr %3, align 4
  %14 = load i32, ptr %3, align 4
  %15 = icmp eq i32 %14, -1
  br i1 %15, label %16, label %24

16:                                               ; preds = %10
  %17 = call ptr @__cxa_allocate_exception(i64 384) #1
  %18 = getelementptr inbounds %"class.nix::AutoCloseFD", ptr %6, i32 0, i32 0
  invoke void @_ZN3nix8SysErrorC2IJA26_ciEEEDpRKT_(ptr noundef nonnull align 8 dereferenceable(380) %17, ptr noundef nonnull align 1 dereferenceable(26) @.str.10, ptr noundef nonnull align 4 dereferenceable(4) %18)
          to label %19 unwind label %20

19:                                               ; preds = %16
  call void @__cxa_throw(ptr %17, ptr @_ZTIN3nix8SysErrorE, ptr @_ZN3nix8SysErrorD2Ev) #19
  unreachable

20:                                               ; preds = %16
  %21 = landingpad { ptr, i32 }
          cleanup
  %22 = extractvalue { ptr, i32 } %21, 0
  store ptr %22, ptr %4, align 8
  %23 = extractvalue { ptr, i32 } %21, 1
  store i32 %23, ptr %5, align 4
  call void @__cxa_free_exception(ptr %17) #1
  br label %26

24:                                               ; preds = %10
  br label %25

25:                                               ; preds = %24, %1
  ret void

26:                                               ; preds = %20
  %27 = load ptr, ptr %4, align 8
  %28 = load i32, ptr %5, align 4
  %29 = insertvalue { ptr, i32 } poison, ptr %27, 0
  %30 = insertvalue { ptr, i32 } %29, i32 %28, 1
  resume { ptr, i32 } %30
}